target datalayout = "e-m:e-p270:32:32-p271:32:32-p272:64:64-i64:64-i128:128-f80:128-n8:16:32:64-S128"
target triple = "x86_64-pc-linux-gnu"

%struct.Tuplesortstate = type { %struct.TuplesortPublic, i32, i8, i8, i32, i64, i64, i64, i32, i64, i8, i32, ptr, ptr, i32, i32, i8, i8, ptr, ptr, ptr, i64, ptr, i32, ptr, i32, i32, ptr, i32, i32, ptr, ptr, i32, i8, i64, i32, i8, i32, ptr, i32, i64, %struct.PGRUsage }
%struct.TuplesortPublic = type { ptr, ptr, ptr, ptr, ptr, ptr, ptr, ptr, ptr, i8, i32, ptr, ptr, i32, i8, ptr }
%struct.PGRUsage = type { %struct.timeval, %struct.rusage }
%struct.timeval = type { i64, i64 }
%struct.rusage = type { %struct.timeval, %struct.timeval, %union.anon, %union.anon.0, %union.anon.1, %union.anon.2, %union.anon.3, %union.anon.4, %union.anon.5, %union.anon.6, %union.anon.7, %union.anon.8, %union.anon.9, %union.anon.10, %union.anon.11, %union.anon.12 }
%union.anon = type { i64 }
%union.anon.0 = type { i64 }
%union.anon.1 = type { i64 }
%union.anon.2 = type { i64 }
%union.anon.3 = type { i64 }
%union.anon.4 = type { i64 }
%union.anon.5 = type { i64 }
%union.anon.6 = type { i64 }
%union.anon.7 = type { i64 }
%union.anon.8 = type { i64 }
%union.anon.9 = type { i64 }
%union.anon.10 = type { i64 }
%union.anon.11 = type { i64 }
%union.anon.12 = type { i64 }

@trace_sort = dso_local global i8 0, align 1
@.str.1 = private unnamed_addr constant [12 x i8] c"tuplesort.c\00", align 1
@CurrentMemoryContext = external global ptr, align 8
@.str.15 = private unnamed_addr constant [14 x i8] c"external sort\00", align 1
@.str.22 = private unnamed_addr constant [49 x i8] c"%s of worker %d ended, %lld disk blocks used: %s\00", align 1
@.str.23 = private unnamed_addr constant [23 x i8] c"parallel external sort\00", align 1
@__func__.tuplesort_free = private unnamed_addr constant [15 x i8] c"tuplesort_free\00", align 1
@.str.24 = private unnamed_addr constant [40 x i8] c"%s of worker %d ended, %lld KB used: %s\00", align 1
@.str.25 = private unnamed_addr constant [14 x i8] c"internal sort\00", align 1
@.str.26 = private unnamed_addr constant [26 x i8] c"unperformed parallel sort\00", align 1

; Function Attrs: inlinehint nounwind uwtable
define internal ptr @MemoryContextSwitchTo(ptr noundef %0) #4 {
  %2 = alloca ptr, align 8
  %3 = alloca ptr, align 8
  store ptr %0, ptr %2, align 8
  call void @llvm.lifetime.start.p0(i64 8, ptr %3) #9
  %4 = load ptr, ptr @CurrentMemoryContext, align 8
  store ptr %4, ptr %3, align 8
  %5 = load ptr, ptr %2, align 8
  store ptr %5, ptr @CurrentMemoryContext, align 8
  %6 = load ptr, ptr %3, align 8
  call void @llvm.lifetime.end.p0(i64 8, ptr %3) #9
  ret ptr %6
}

; Function Attrs: nounwind uwtable
define internal void @tuplesort_free(ptr noundef %0) #0 {
  %2 = alloca ptr, align 8
  %3 = alloca ptr, align 8
  %4 = alloca i64, align 8
  store ptr %0, ptr %2, align 8
  call void @llvm.lifetime.start.p0(i64 8, ptr %3) #9
  %5 = load ptr, ptr %2, align 8
  %6 = getelementptr inbounds nuw %struct.Tuplesortstate, ptr %5, i32 0, i32 0
  %7 = getelementptr inbounds nuw %struct.TuplesortPublic, ptr %6, i32 0, i32 7
  %8 = load ptr, ptr %7, align 8
  %9 = call ptr @MemoryContextSwitchTo(ptr noundef %8)
  store ptr %9, ptr %3, align 8
  call void @llvm.lifetime.start.p0(i64 8, ptr %4) #9
  %10 = load ptr, ptr %2, align 8
  %11 = getelementptr inbounds nuw %struct.Tuplesortstate, ptr %10, i32 0, i32 12
  %12 = load ptr, ptr %11, align 8
  %13 = icmp ne ptr %12, null
  br i1 %13, label %14, label %19

14:                                               ; preds = %1
  %15 = load ptr, ptr %2, align 8
  %16 = getelementptr inbounds nuw %struct.Tuplesortstate, ptr %15, i32 0, i32 12
  %17 = load ptr, ptr %16, align 8
  %18 = call i64 @LogicalTapeSetBlocks(ptr noundef %17)
  store i64 %18, ptr %4, align 8
  br label %29

19:                                               ; preds = %1
  %20 = load ptr, ptr %2, align 8
  %21 = getelementptr inbounds nuw %struct.Tuplesortstate, ptr %20, i32 0, i32 7
  %22 = load i64, ptr %21, align 8
  %23 = load ptr, ptr %2, align 8
  %24 = getelementptr inbounds nuw %struct.Tuplesortstate, ptr %23, i32 0, i32 6
  %25 = load i64, ptr %24, align 8
  %26 = sub i64 %22, %25
  %27 = add i64 %26, 1023
  %28 = sdiv i64 %27, 1024
  store i64 %28, ptr %4, align 8
  br label %29

29:                                               ; preds = %19, %14
  %30 = load ptr, ptr %2, align 8
  %31 = getelementptr inbounds nuw %struct.Tuplesortstate, ptr %30, i32 0, i32 12
  %32 = load ptr, ptr %31, align 8
  %33 = icmp ne ptr %32, null
  br i1 %33, label %34, label %38

34:                                               ; preds = %29
  %35 = load ptr, ptr %2, align 8
  %36 = getelementptr inbounds nuw %struct.Tuplesortstate, ptr %35, i32 0, i32 12
  %37 = load ptr, ptr %36, align 8
  call void @LogicalTapeSetClose(ptr noundef %37)
  br label %38

38:                                               ; preds = %34, %29
  %39 = load i8, ptr @trace_sort, align 1, !range !4, !noundef !5
  %40 = trunc i8 %39 to i1
  br i1 %40, label %41, label %93

41:                                               ; preds = %38
  %42 = load ptr, ptr %2, align 8
  %43 = getelementptr inbounds nuw %struct.Tuplesortstate, ptr %42, i32 0, i32 12
  %44 = load ptr, ptr %43, align 8
  %45 = icmp ne ptr %44, null
  br i1 %45, label %46, label %69

46:                                               ; preds = %41
  br label %47

47:                                               ; preds = %46
  br i1 false, label %48, label %50

48:                                               ; preds = %47
  %49 = call zeroext i1 @errstart_cold(i32 noundef 15, ptr noundef null) #10
  br i1 %49, label %52, label %66

50:                                               ; preds = %47
  %51 = call zeroext i1 @errstart(i32 noundef 15, ptr noundef null)
  br i1 %51, label %52, label %66

52:                                               ; preds = %50, %48
  %53 = load ptr, ptr %2, align 8
  %54 = getelementptr inbounds nuw %struct.Tuplesortstate, ptr %53, i32 0, i32 38
  %55 = load ptr, ptr %54, align 8
  %56 = icmp eq ptr %55, null
  %57 = select i1 %56, ptr @.str.15, ptr @.str.23
  %58 = load ptr, ptr %2, align 8
  %59 = getelementptr inbounds nuw %struct.Tuplesortstate, ptr %58, i32 0, i32 37
  %60 = load i32, ptr %59, align 8
  %61 = load i64, ptr %4, align 8
  %62 = load ptr, ptr %2, align 8
  %63 = getelementptr inbounds nuw %struct.Tuplesortstate, ptr %62, i32 0, i32 41
  %64 = call ptr @pg_rusage_show(ptr noundef %63)
  %65 = call i32 (ptr, ...) @errmsg_internal(ptr noundef @.str.22, ptr noundef %57, i32 noundef %60, i64 noundef %61, ptr noundef %64)
  call void @errfinish(ptr noundef @.str.1, i32 noundef 923, ptr noundef @__func__.tuplesort_free)
  br label %66

66:                                               ; preds = %52, %50, %48
  br label %67

67:                                               ; preds = %66
  br label %68

68:                                               ; preds = %67
  br label %92

69:                                               ; preds = %41
  br label %70

70:                                               ; preds = %69
  br i1 false, label %71, label %73

71:                                               ; preds = %70
  %72 = call zeroext i1 @errstart_cold(i32 noundef 15, ptr noundef null) #10
  br i1 %72, label %75, label %89

73:                                               ; preds = %70
  %74 = call zeroext i1 @errstart(i32 noundef 15, ptr noundef null)
  br i1 %74, label %75, label %89

75:                                               ; preds = %73, %71
  %76 = load ptr, ptr %2, align 8
  %77 = getelementptr inbounds nuw %struct.Tuplesortstate, ptr %76, i32 0, i32 38
  %78 = load ptr, ptr %77, align 8
  %79 = icmp eq ptr %78, null
  %80 = select i1 %79, ptr @.str.25, ptr @.str.26
  %81 = load ptr, ptr %2, align 8
  %82 = getelementptr inbounds nuw %struct.Tuplesortstate, ptr %81, i32 0, i32 37
  %83 = load i32, ptr %82, align 8
  %84 = load i64, ptr %4, align 8
  %85 = load ptr, ptr %2, align 8
  %86 = getelementptr inbounds nuw %struct.Tuplesortstate, ptr %85, i32 0, i32 41
  %87 = call ptr @pg_rusage_show(ptr noundef %86)
  %88 = call i32 (ptr, ...) @errmsg_internal(ptr noundef @.str.24, ptr noundef %80, i32 noundef %83, i64 noundef %84, ptr noundef %87)
  call void @errfinish(ptr noundef @.str.1, i32 noundef 927, ptr noundef @__func__.tuplesort_free)
  br label %89

89:                                               ; preds = %75, %73, %71
  br label %90

90:                                               ; preds = %89
  br label %91

91:                                               ; preds = %90
  br label %92

92:                                               ; preds = %91, %68
  br label %93

93:                                               ; preds = %92, %38
  br label %94

94:                                               ; preds = %93
  br label %95

95:                                               ; preds = %94
  br label %96

96:                                               ; preds = %95
  %97 = load ptr, ptr %2, align 8
  %98 = getelementptr inbounds nuw %struct.Tuplesortstate, ptr %97, i32 0, i32 0
  %99 = getelementptr inbounds nuw %struct.TuplesortPublic, ptr %98, i32 0, i32 5
  %100 = load ptr, ptr %99, align 8
  %101 = icmp ne ptr %100, null
  br i1 %101, label %102, label %108

102:                                              ; preds = %96
  %103 = load ptr, ptr %2, align 8
  %104 = getelementptr inbounds nuw %struct.Tuplesortstate, ptr %103, i32 0, i32 0
  %105 = getelementptr inbounds nuw %struct.TuplesortPublic, ptr %104, i32 0, i32 5
  %106 = load ptr, ptr %105, align 8
  %107 = load ptr, ptr %2, align 8
  call void %106(ptr noundef %107)
  br label %109

108:                                              ; preds = %96
  br label %109

109:                                              ; preds = %108, %102
  %110 = load ptr, ptr %3, align 8
  %111 = call ptr @MemoryContextSwitchTo(ptr noundef %110)
  %112 = load ptr, ptr %2, align 8
  %113 = getelementptr inbounds nuw %struct.Tuplesortstate, ptr %112, i32 0, i32 0
  %114 = getelementptr inbounds nuw %struct.TuplesortPublic, ptr %113, i32 0, i32 7
  %115 = load ptr, ptr %114, align 8
  call void @MemoryContextReset(ptr noundef %115)
  call void @llvm.lifetime.end.p0(i64 8, ptr %4) #9
  call void @llvm.lifetime.end.p0(i64 8, ptr %3) #9
  ret void
}