; Function Attrs: nounwind uwtable
define internal fastcc void @tuplesort_free(ptr noundef %0) unnamed_addr #0 {
  %2 = getelementptr inbounds nuw i8, ptr %0, i64 56
  %3 = load ptr, ptr %2, align 8
  %4 = load ptr, ptr @CurrentMemoryContext, align 8
  store ptr %3, ptr @CurrentMemoryContext, align 8
  %5 = getelementptr inbounds nuw i8, ptr %0, i64 176
  %6 = load ptr, ptr %5, align 8
  %.not = icmp eq ptr %6, null
  br i1 %.not, label %.thread, label %14

.thread:                                          ; preds = %1
  %7 = getelementptr inbounds nuw i8, ptr %0, i64 144
  %8 = load i64, ptr %7, align 8
  %9 = getelementptr inbounds nuw i8, ptr %0, i64 136
  %10 = load i64, ptr %9, align 8
  %11 = add i64 %8, 1023
  %12 = sub i64 %11, %10
  %13 = sdiv i64 %12, 1024
  br label %17

14:                                               ; preds = %1
  %15 = tail call i64 @LogicalTapeSetBlocks(ptr noundef nonnull %6) #13
  %.pre = load ptr, ptr %5, align 8
  %.not23 = icmp eq ptr %.pre, null
  br i1 %.not23, label %17, label %16

16:                                               ; preds = %14
  tail call void @LogicalTapeSetClose(ptr noundef nonnull %.pre) #13
  br label %17

17:                                               ; preds = %.thread, %16, %14
  %.028 = phi i64 [ %13, %.thread ], [ %15, %16 ], [ %15, %14 ]
  %18 = load i8, ptr @trace_sort, align 1, !range !4, !noundef !5
  %19 = trunc nuw i8 %18 to i1
  br i1 %19, label %20, label %45

20:                                               ; preds = %17
  %21 = load ptr, ptr %5, align 8
  %.not24 = icmp eq ptr %21, null
  %22 = tail call zeroext i1 @errstart(i32 noundef 15, ptr noundef null) #13
  br i1 %.not24, label %34, label %23

23:                                               ; preds = %20
  br i1 %22, label %24, label %45

24:                                               ; preds = %23
  %25 = getelementptr inbounds nuw i8, ptr %0, i64 336
  %26 = load ptr, ptr %25, align 8
  %27 = icmp eq ptr %26, null
  %28 = select i1 %27, ptr @.str.15, ptr @.str.23
  %29 = getelementptr inbounds nuw i8, ptr %0, i64 328
  %30 = load i32, ptr %29, align 8
  %31 = getelementptr inbounds nuw i8, ptr %0, i64 360
  %32 = tail call ptr @pg_rusage_show(ptr noundef nonnull %31) #13
  %33 = tail call i32 (ptr, ...) @errmsg_internal(ptr noundef nonnull @.str.22, ptr noundef nonnull %28, i32 noundef %30, i64 noundef %.028, ptr noundef %32) #13
  br label %.sink.split

34:                                               ; preds = %20
  br i1 %22, label %35, label %45

35:                                               ; preds = %34
  %36 = getelementptr inbounds nuw i8, ptr %0, i64 336
  %37 = load ptr, ptr %36, align 8
  %38 = icmp eq ptr %37, null
  %39 = select i1 %38, ptr @.str.25, ptr @.str.26
  %40 = getelementptr inbounds nuw i8, ptr %0, i64 328
  %41 = load i32, ptr %40, align 8
  %42 = getelementptr inbounds nuw i8, ptr %0, i64 360
  %43 = tail call ptr @pg_rusage_show(ptr noundef nonnull %42) #13
  %44 = tail call i32 (ptr, ...) @errmsg_internal(ptr noundef nonnull @.str.24, ptr noundef nonnull %39, i32 noundef %41, i64 noundef %.028, ptr noundef %43) #13
  br label %.sink.split

.sink.split:                                      ; preds = %24, %35
  %.sink = phi i32 [ 927, %35 ], [ 923, %24 ]
  tail call void @errfinish(ptr noundef nonnull @.str.1, i32 noundef %.sink, ptr noundef nonnull @__func__.tuplesort_free) #13
  br label %45

45:                                               ; preds = %.sink.split, %17, %34, %23
  %46 = getelementptr inbounds nuw i8, ptr %0, i64 40
  %47 = load ptr, ptr %46, align 8
  %.not25 = icmp eq ptr %47, null
  br i1 %.not25, label %49, label %48

48:                                               ; preds = %45
  tail call void %47(ptr noundef nonnull %0) #13
  br label %49

49:                                               ; preds = %45, %48
  store ptr %4, ptr @CurrentMemoryContext, align 8
  %50 = load ptr, ptr %2, align 8
  tail call void @MemoryContextReset(ptr noundef %50) #13
  ret void
}